#include <math.h>
#include <stdio.h>
#include <stdlib.h>
#include <string.h>

void main()
{
	int a[100],*p=&a[0],i,n,m;
	scanf("%d%d",&n,&m);
	for(i=0;i<n;i++)
		scanf("%d",&a[i]);
	for(i=n-m;i<n;i++)
		printf("%d ",*(p+i));
	for(i=0;i<n-m;i++)
	{
		printf("%d",*(p+i));
		if(i!=n-m-1)
			printf(" ");
	}
	printf("\n");
}
